target datalayout = "e-m:e-p270:32:32-p271:32:32-p272:64:64-i64:64-i128:128-f80:128-n8:16:32:64-S128"
target triple = "x86_64-pc-linux-gnu"

%"class.absl::lts_20240722::Status" = type { i64 }
%class.anon = type { %"class.grpc_core::RefCountedPtr.80" }
%"class.grpc_core::RefCountedPtr.80" = type { ptr }
%"class.absl::lts_20240722::internal_statusor::StatusOrData.82" = type { %union.anon.83, %union.anon.84 }
%union.anon.83 = type { %"class.absl::lts_20240722::Status" }
%union.anon.84 = type { ptr }
%"class.absl::lts_20240722::StatusOr.81" = type { %"class.absl::lts_20240722::internal_statusor::StatusOrData.82" }

; Function Attrs: mustprogress nounwind uwtable
define linkonce_odr noundef i64 @_ZN4absl12lts_202407226Status12MovedFromRepEv() #8 comdat align 2 {
  %1 = call noundef i64 @_ZN4absl12lts_202407226Status16CodeToInlinedRepENS0_10StatusCodeE(i32 noundef 13)
  %2 = or i64 %1, 2
  ret i64 %2
}

; Function Attrs: mustprogress nounwind uwtable
define linkonce_odr void @_ZN4absl12lts_202407226StatusC2Em(ptr noundef nonnull align 8 dereferenceable(8) %0, i64 noundef %1) unnamed_addr #8 comdat align 2 {
  %3 = alloca ptr, align 8
  %4 = alloca i64, align 8
  store ptr %0, ptr %3, align 8, !tbaa !77
  store i64 %1, ptr %4, align 8, !tbaa !55
  %5 = load ptr, ptr %3, align 8
  %6 = getelementptr inbounds nuw %"class.absl::lts_20240722::Status", ptr %5, i32 0, i32 0
  %7 = load i64, ptr %4, align 8, !tbaa !55
  store i64 %7, ptr %6, align 8, !tbaa !81
  ret void
}

; Function Attrs: inlinehint mustprogress nounwind uwtable
define linkonce_odr void @_ZN4absl12lts_202407226StatusC2ENS0_10StatusCodeE(ptr noundef nonnull align 8 dereferenceable(8) %0, i32 noundef %1) unnamed_addr #7 comdat align 2 {
  %3 = alloca ptr, align 8
  %4 = alloca i32, align 4
  store ptr %0, ptr %3, align 8, !tbaa !77
  store i32 %1, ptr %4, align 4, !tbaa !292
  %5 = load ptr, ptr %3, align 8
  %6 = load i32, ptr %4, align 4, !tbaa !292
  %7 = call noundef i64 @_ZN4absl12lts_202407226Status16CodeToInlinedRepENS0_10StatusCodeE(i32 noundef %6)
  call void @_ZN4absl12lts_202407226StatusC2Em(ptr noundef nonnull align 8 dereferenceable(8) %5, i64 noundef %7)
  ret void
}

; Function Attrs: inlinehint mustprogress nounwind uwtable
define linkonce_odr void @_ZN4absl12lts_202407226StatusC2EOS1_(ptr noundef nonnull align 8 dereferenceable(8) %0, ptr noundef nonnull align 8 dereferenceable(8) %1) unnamed_addr #7 comdat align 2 personality ptr @__gxx_personality_v0 {
  %3 = alloca ptr, align 8
  %4 = alloca ptr, align 8
  store ptr %0, ptr %3, align 8, !tbaa !77
  store ptr %1, ptr %4, align 8, !tbaa !77
  %5 = load ptr, ptr %3, align 8
  %6 = load ptr, ptr %4, align 8, !tbaa !77
  %7 = getelementptr inbounds nuw %"class.absl::lts_20240722::Status", ptr %6, i32 0, i32 0
  %8 = load i64, ptr %7, align 8, !tbaa !81
  call void @_ZN4absl12lts_202407226StatusC2Em(ptr noundef nonnull align 8 dereferenceable(8) %5, i64 noundef %8)
  %9 = invoke noundef i64 @_ZN4absl12lts_202407226Status12MovedFromRepEv()
          to label %10 unwind label %13

10:                                               ; preds = %2
  %11 = load ptr, ptr %4, align 8, !tbaa !77
  %12 = getelementptr inbounds nuw %"class.absl::lts_20240722::Status", ptr %11, i32 0, i32 0
  store i64 %9, ptr %12, align 8, !tbaa !81
  ret void

13:                                               ; preds = %2
  %14 = landingpad { ptr, i32 }
          catch ptr null
  %15 = extractvalue { ptr, i32 } %14, 0
  call void @__clang_call_terminate(ptr %15) #27
  unreachable
}

; Function Attrs: inlinehint mustprogress uwtable
define linkonce_odr void @_ZN4absl12lts_202407226StatusC2Ev(ptr noundef nonnull align 8 dereferenceable(8) %0) unnamed_addr #6 comdat align 2 {
  %2 = alloca ptr, align 8
  store ptr %0, ptr %2, align 8, !tbaa !77
  %3 = load ptr, ptr %2, align 8
  call void @_ZN4absl12lts_202407226StatusC2ENS0_10StatusCodeE(ptr noundef nonnull align 8 dereferenceable(8) %3, i32 noundef 0)
  ret void
}

; Function Attrs: mustprogress nounwind uwtable
define linkonce_odr noundef i64 @_ZN4absl12lts_202407226Status16CodeToInlinedRepENS0_10StatusCodeE(i32 noundef %0) #8 comdat align 2 {
  %2 = alloca i32, align 4
  store i32 %0, ptr %2, align 4, !tbaa !292
  %3 = load i32, ptr %2, align 4, !tbaa !292
  %4 = sext i32 %3 to i64
  %5 = shl i64 %4, 2
  %6 = add i64 %5, 1
  ret i64 %6
}

; Function Attrs: mustprogress nounwind uwtable
define linkonce_odr void @_ZN4absl12lts_2024072217internal_statusor12PlacementNewINS0_6StatusEJS3_EEEvPvDpOT0_(ptr noundef nonnull %0, ptr noundef nonnull align 8 dereferenceable(8) %1) #8 comdat {
  %3 = alloca ptr, align 8
  %4 = alloca ptr, align 8
  store ptr %0, ptr %3, align 8, !tbaa !108
  store ptr %1, ptr %4, align 8, !tbaa !77
  %5 = load ptr, ptr %3, align 8, !tbaa !108
  %6 = load ptr, ptr %4, align 8, !tbaa !77
  call void @_ZN4absl12lts_202407226StatusC2EOS1_(ptr noundef nonnull align 8 dereferenceable(8) %5, ptr noundef nonnull align 8 dereferenceable(8) %6) #3
  ret void
}

; Function Attrs: mustprogress uwtable
define linkonce_odr void @_ZN4absl12lts_2024072217internal_statusor12PlacementNewINS0_6StatusEJEEEvPvDpOT0_(ptr noundef nonnull %0) #4 comdat {
  %2 = alloca ptr, align 8
  store ptr %0, ptr %2, align 8, !tbaa !108
  %3 = load ptr, ptr %2, align 8, !tbaa !108
  call void @_ZN4absl12lts_202407226StatusC2Ev(ptr noundef nonnull align 8 dereferenceable(8) %3)
  ret void
}

; Function Attrs: mustprogress nounwind uwtable
define linkonce_odr void @_ZN4absl12lts_2024072217internal_statusor12PlacementNewIPN9grpc_core14HandshakerArgsEJS5_EEEvPvDpOT0_(ptr noundef nonnull %0, ptr noundef nonnull align 8 dereferenceable(8) %1) #8 comdat {
  %3 = alloca ptr, align 8
  %4 = alloca ptr, align 8
  store ptr %0, ptr %3, align 8, !tbaa !108
  store ptr %1, ptr %4, align 8, !tbaa !616
  %5 = load ptr, ptr %3, align 8, !tbaa !108
  %6 = load ptr, ptr %4, align 8, !tbaa !616
  %7 = load ptr, ptr %6, align 8, !tbaa !124
  store ptr %7, ptr %5, align 8, !tbaa !124
  ret void
}

; Function Attrs: inlinehint mustprogress uwtable
define linkonce_odr noundef zeroext i1 @_ZNK4absl12lts_202407226Status2okEv(ptr noundef nonnull align 8 dereferenceable(8) %0) #6 comdat align 2 {
  %2 = alloca ptr, align 8
  store ptr %0, ptr %2, align 8, !tbaa !77
  %3 = load ptr, ptr %2, align 8
  %4 = getelementptr inbounds nuw %"class.absl::lts_20240722::Status", ptr %3, i32 0, i32 0
  %5 = load i64, ptr %4, align 8, !tbaa !81
  %6 = call noundef i64 @_ZN4absl12lts_202407226Status16CodeToInlinedRepENS0_10StatusCodeE(i32 noundef 0)
  %7 = icmp eq i64 %5, %6
  ret i1 %7
}

; Function Attrs: mustprogress uwtable
define linkonce_odr void @_ZN4absl12lts_2024072217internal_statusor12StatusOrDataIPN9grpc_core14HandshakerArgsEE10MakeStatusIJNS0_6StatusEEEEvDpOT_(ptr noundef nonnull align 8 dereferenceable(16) %0, ptr noundef nonnull align 8 dereferenceable(8) %1) #4 comdat align 2 {
  %3 = alloca ptr, align 8
  %4 = alloca ptr, align 8
  store ptr %0, ptr %3, align 8, !tbaa !614
  store ptr %1, ptr %4, align 8, !tbaa !77
  %5 = load ptr, ptr %3, align 8
  %6 = getelementptr inbounds nuw %"class.absl::lts_20240722::internal_statusor::StatusOrData.82", ptr %5, i32 0, i32 0
  %7 = load ptr, ptr %4, align 8, !tbaa !77
  call void @_ZN4absl12lts_2024072217internal_statusor12PlacementNewINS0_6StatusEJS3_EEEvPvDpOT0_(ptr noundef %6, ptr noundef nonnull align 8 dereferenceable(8) %7)
  ret void
}

; Function Attrs: mustprogress uwtable
define linkonce_odr void @_ZN4absl12lts_2024072217internal_statusor12StatusOrDataIPN9grpc_core14HandshakerArgsEE10MakeStatusIJEEEvDpOT_(ptr noundef nonnull align 8 dereferenceable(16) %0) #4 comdat align 2 {
  %2 = alloca ptr, align 8
  store ptr %0, ptr %2, align 8, !tbaa !614
  %3 = load ptr, ptr %2, align 8
  %4 = getelementptr inbounds nuw %"class.absl::lts_20240722::internal_statusor::StatusOrData.82", ptr %3, i32 0, i32 0
  call void @_ZN4absl12lts_2024072217internal_statusor12PlacementNewINS0_6StatusEJEEEvPvDpOT0_(ptr noundef %4)
  ret void
}

; Function Attrs: mustprogress uwtable
define linkonce_odr void @_ZN4absl12lts_2024072217internal_statusor12StatusOrDataIPN9grpc_core14HandshakerArgsEE9MakeValueIJS5_EEEvDpOT_(ptr noundef nonnull align 8 dereferenceable(16) %0, ptr noundef nonnull align 8 dereferenceable(8) %1) #4 comdat align 2 {
  %3 = alloca ptr, align 8
  %4 = alloca ptr, align 8
  store ptr %0, ptr %3, align 8, !tbaa !614
  store ptr %1, ptr %4, align 8, !tbaa !616
  %5 = load ptr, ptr %3, align 8
  %6 = getelementptr inbounds nuw %"class.absl::lts_20240722::internal_statusor::StatusOrData.82", ptr %5, i32 0, i32 1
  %7 = load ptr, ptr %4, align 8, !tbaa !616
  call void @_ZN4absl12lts_2024072217internal_statusor12PlacementNewIPN9grpc_core14HandshakerArgsEJS5_EEEvPvDpOT0_(ptr noundef %6, ptr noundef nonnull align 8 dereferenceable(8) %7)
  ret void
}

; Function Attrs: mustprogress uwtable
define linkonce_odr noundef zeroext i1 @_ZNK4absl12lts_2024072217internal_statusor12StatusOrDataIPN9grpc_core14HandshakerArgsEE2okEv(ptr noundef nonnull align 8 dereferenceable(16) %0) #4 comdat align 2 {
  %2 = alloca ptr, align 8
  store ptr %0, ptr %2, align 8, !tbaa !614
  %3 = load ptr, ptr %2, align 8
  %4 = getelementptr inbounds nuw %"class.absl::lts_20240722::internal_statusor::StatusOrData.82", ptr %3, i32 0, i32 0
  %5 = call noundef zeroext i1 @_ZNK4absl12lts_202407226Status2okEv(ptr noundef nonnull align 8 dereferenceable(8) %4)
  ret i1 %5
}

; Function Attrs: mustprogress nounwind uwtable
define linkonce_odr noundef ptr @_ZNK9grpc_core13RefCountedPtrINS_15Chttp2ConnectorEEptEv(ptr noundef nonnull align 8 dereferenceable(8) %0) #8 comdat align 2 {
  %2 = alloca ptr, align 8
  store ptr %0, ptr %2, align 8, !tbaa !264
  %3 = load ptr, ptr %2, align 8
  %4 = getelementptr inbounds nuw %"class.grpc_core::RefCountedPtr.80", ptr %3, i32 0, i32 0
  %5 = load ptr, ptr %4, align 8, !tbaa !266
  ret ptr %5
}

; Function Attrs: mustprogress nounwind uwtable
define linkonce_odr void @_ZN4absl12lts_2024072217internal_statusor12StatusOrDataIPN9grpc_core14HandshakerArgsEEC2EOS6_(ptr noundef nonnull align 8 dereferenceable(16) %0, ptr noundef nonnull align 8 dereferenceable(16) %1) unnamed_addr #8 comdat align 2 personality ptr @__gxx_personality_v0 {
  %3 = alloca ptr, align 8
  %4 = alloca ptr, align 8
  store ptr %0, ptr %3, align 8, !tbaa !614
  store ptr %1, ptr %4, align 8, !tbaa !614
  %5 = load ptr, ptr %3, align 8
  %6 = load ptr, ptr %4, align 8, !tbaa !614
  %7 = invoke noundef zeroext i1 @_ZNK4absl12lts_2024072217internal_statusor12StatusOrDataIPN9grpc_core14HandshakerArgsEE2okEv(ptr noundef nonnull align 8 dereferenceable(16) %6)
          to label %8 unwind label %19

8:                                                ; preds = %2
  br i1 %7, label %9, label %14

9:                                                ; preds = %8
  %10 = load ptr, ptr %4, align 8, !tbaa !614
  %11 = getelementptr inbounds nuw %"class.absl::lts_20240722::internal_statusor::StatusOrData.82", ptr %10, i32 0, i32 1
  invoke void @_ZN4absl12lts_2024072217internal_statusor12StatusOrDataIPN9grpc_core14HandshakerArgsEE9MakeValueIJS5_EEEvDpOT_(ptr noundef nonnull align 8 dereferenceable(16) %5, ptr noundef nonnull align 8 dereferenceable(8) %11)
          to label %12 unwind label %19

12:                                               ; preds = %9
  invoke void @_ZN4absl12lts_2024072217internal_statusor12StatusOrDataIPN9grpc_core14HandshakerArgsEE10MakeStatusIJEEEvDpOT_(ptr noundef nonnull align 8 dereferenceable(16) %5)
          to label %13 unwind label %19

13:                                               ; preds = %12
  br label %18

14:                                               ; preds = %8
  %15 = load ptr, ptr %4, align 8, !tbaa !614
  %16 = getelementptr inbounds nuw %"class.absl::lts_20240722::internal_statusor::StatusOrData.82", ptr %15, i32 0, i32 0
  invoke void @_ZN4absl12lts_2024072217internal_statusor12StatusOrDataIPN9grpc_core14HandshakerArgsEE10MakeStatusIJNS0_6StatusEEEEvDpOT_(ptr noundef nonnull align 8 dereferenceable(16) %5, ptr noundef nonnull align 8 dereferenceable(8) %16)
          to label %17 unwind label %19

17:                                               ; preds = %14
  br label %18

18:                                               ; preds = %17, %13
  ret void

19:                                               ; preds = %14, %12, %9, %2
  %20 = landingpad { ptr, i32 }
          catch ptr null
  %21 = extractvalue { ptr, i32 } %20, 0
  call void @__clang_call_terminate(ptr %21) #27
  unreachable
}

; Function Attrs: inlinehint mustprogress uwtable
define internal void @"_ZZN9grpc_core15Chttp2Connector7ConnectERKNS_19SubchannelConnector4ArgsEPNS1_6ResultEP12grpc_closureENK3$_0clEN4absl12lts_202407228StatusOrIPNS_14HandshakerArgsEEE"(ptr noundef nonnull align 8 dereferenceable(8) %0, ptr noundef %1) #6 align 2 personality ptr @__gxx_personality_v0 {
  %3 = alloca ptr, align 8
  %4 = alloca ptr, align 8
  %5 = alloca %"class.absl::lts_20240722::StatusOr.81", align 8
  %6 = alloca ptr, align 8
  %7 = alloca i32, align 4
  store ptr %0, ptr %3, align 8, !tbaa !108
  store ptr %1, ptr %4, align 8, !tbaa !120
  %8 = load ptr, ptr %3, align 8
  %9 = getelementptr inbounds nuw %class.anon, ptr %8, i32 0, i32 0
  %10 = call noundef ptr @_ZNK9grpc_core13RefCountedPtrINS_15Chttp2ConnectorEEptEv(ptr noundef nonnull align 8 dereferenceable(8) %9)
  call void @_ZN4absl12lts_202407228StatusOrIPN9grpc_core14HandshakerArgsEEC2EOS5_(ptr noundef nonnull align 8 dereferenceable(16) %5, ptr noundef nonnull align 8 dereferenceable(16) %1) #3
  invoke void @_ZN9grpc_core15Chttp2Connector15OnHandshakeDoneEN4absl12lts_202407228StatusOrIPNS_14HandshakerArgsEEE(ptr noundef nonnull align 8 dereferenceable(168) %10, ptr noundef %5)
          to label %11 unwind label %12

11:                                               ; preds = %2
  call void @_ZN4absl12lts_2024072217internal_statusor12StatusOrDataIPN9grpc_core14HandshakerArgsEED2Ev(ptr noundef nonnull align 8 dereferenceable(16) %5) #3
  ret void

12:                                               ; preds = %2
  %13 = landingpad { ptr, i32 }
          cleanup
  %14 = extractvalue { ptr, i32 } %13, 0
  store ptr %14, ptr %6, align 8
  %15 = extractvalue { ptr, i32 } %13, 1
  store i32 %15, ptr %7, align 4
  call void @_ZN4absl12lts_2024072217internal_statusor12StatusOrDataIPN9grpc_core14HandshakerArgsEED2Ev(ptr noundef nonnull align 8 dereferenceable(16) %5) #3
  br label %16

16:                                               ; preds = %12
  %17 = load ptr, ptr %6, align 8
  %18 = load i32, ptr %7, align 4
  %19 = insertvalue { ptr, i32 } poison, ptr %17, 0
  %20 = insertvalue { ptr, i32 } %19, i32 %18, 1
  resume { ptr, i32 } %20
}

; Function Attrs: mustprogress nounwind uwtable
define linkonce_odr void @_ZN4absl12lts_202407228StatusOrIPN9grpc_core14HandshakerArgsEEC2EOS5_(ptr noundef nonnull align 8 dereferenceable(16) %0, ptr noundef nonnull align 8 dereferenceable(16) %1) unnamed_addr #8 comdat align 2 {
  %3 = alloca ptr, align 8
  %4 = alloca ptr, align 8
  store ptr %0, ptr %3, align 8, !tbaa !120
  store ptr %1, ptr %4, align 8, !tbaa !120
  %5 = load ptr, ptr %3, align 8
  %6 = load ptr, ptr %4, align 8, !tbaa !120
  call void @_ZN4absl12lts_2024072217internal_statusor12StatusOrDataIPN9grpc_core14HandshakerArgsEEC2EOS6_(ptr noundef nonnull align 8 dereferenceable(16) %5, ptr noundef nonnull align 8 dereferenceable(16) %6) #3
  ret void
}

; Function Attrs: mustprogress uwtable
define internal void @"_ZSt13__invoke_implIvRZN9grpc_core15Chttp2Connector7ConnectERKNS0_19SubchannelConnector4ArgsEPNS2_6ResultEP12grpc_closureE3$_0JN4absl12lts_202407228StatusOrIPNS0_14HandshakerArgsEEEEET_St14__invoke_otherOT0_DpOT1_"(ptr noundef nonnull align 8 dereferenceable(8) %0, ptr noundef nonnull align 8 dereferenceable(16) %1) #4 personality ptr @__gxx_personality_v0 {
  %3 = alloca ptr, align 8
  %4 = alloca ptr, align 8
  %5 = alloca %"class.absl::lts_20240722::StatusOr.81", align 8
  %6 = alloca ptr, align 8
  %7 = alloca i32, align 4
  store ptr %0, ptr %3, align 8, !tbaa !108
  store ptr %1, ptr %4, align 8, !tbaa !120
  %8 = load ptr, ptr %3, align 8, !tbaa !108
  %9 = load ptr, ptr %4, align 8, !tbaa !120
  call void @_ZN4absl12lts_202407228StatusOrIPN9grpc_core14HandshakerArgsEEC2EOS5_(ptr noundef nonnull align 8 dereferenceable(16) %5, ptr noundef nonnull align 8 dereferenceable(16) %9) #3
  invoke void @"_ZZN9grpc_core15Chttp2Connector7ConnectERKNS_19SubchannelConnector4ArgsEPNS1_6ResultEP12grpc_closureENK3$_0clEN4absl12lts_202407228StatusOrIPNS_14HandshakerArgsEEE"(ptr noundef nonnull align 8 dereferenceable(8) %8, ptr noundef %5)
          to label %10 unwind label %11

10:                                               ; preds = %2
  call void @_ZN4absl12lts_2024072217internal_statusor12StatusOrDataIPN9grpc_core14HandshakerArgsEED2Ev(ptr noundef nonnull align 8 dereferenceable(16) %5) #3
  ret void

11:                                               ; preds = %2
  %12 = landingpad { ptr, i32 }
          cleanup
  %13 = extractvalue { ptr, i32 } %12, 0
  store ptr %13, ptr %6, align 8
  %14 = extractvalue { ptr, i32 } %12, 1
  store i32 %14, ptr %7, align 4
  call void @_ZN4absl12lts_2024072217internal_statusor12StatusOrDataIPN9grpc_core14HandshakerArgsEED2Ev(ptr noundef nonnull align 8 dereferenceable(16) %5) #3
  br label %15

15:                                               ; preds = %11
  %16 = load ptr, ptr %6, align 8
  %17 = load i32, ptr %7, align 4
  %18 = insertvalue { ptr, i32 } poison, ptr %16, 0
  %19 = insertvalue { ptr, i32 } %18, i32 %17, 1
  resume { ptr, i32 } %19
}

; Function Attrs: mustprogress uwtable
define internal void @"_ZSt8__invokeIRZN9grpc_core15Chttp2Connector7ConnectERKNS0_19SubchannelConnector4ArgsEPNS2_6ResultEP12grpc_closureE3$_0JN4absl12lts_202407228StatusOrIPNS0_14HandshakerArgsEEEEENSt15__invoke_resultIT_JDpT0_EE4typeEOSJ_DpOSK_"(ptr noundef nonnull align 8 dereferenceable(8) %0, ptr noundef nonnull align 8 dereferenceable(16) %1) #4 {
  %3 = alloca ptr, align 8
  %4 = alloca ptr, align 8
  store ptr %0, ptr %3, align 8, !tbaa !108
  store ptr %1, ptr %4, align 8, !tbaa !120
  %5 = load ptr, ptr %3, align 8, !tbaa !108
  %6 = load ptr, ptr %4, align 8, !tbaa !120
  call void @"_ZSt13__invoke_implIvRZN9grpc_core15Chttp2Connector7ConnectERKNS0_19SubchannelConnector4ArgsEPNS2_6ResultEP12grpc_closureE3$_0JN4absl12lts_202407228StatusOrIPNS0_14HandshakerArgsEEEEET_St14__invoke_otherOT0_DpOT1_"(ptr noundef nonnull align 8 dereferenceable(8) %5, ptr noundef nonnull align 8 dereferenceable(16) %6)
  ret void
}

; Function Attrs: inlinehint mustprogress uwtable
define internal void @"_ZSt6invokeIRZN9grpc_core15Chttp2Connector7ConnectERKNS0_19SubchannelConnector4ArgsEPNS2_6ResultEP12grpc_closureE3$_0JN4absl12lts_202407228StatusOrIPNS0_14HandshakerArgsEEEEENSt13invoke_resultIT_JDpT0_EE4typeEOSJ_DpOSK_"(ptr noundef nonnull align 8 dereferenceable(8) %0, ptr noundef nonnull align 8 dereferenceable(16) %1) #6 {
  %3 = alloca ptr, align 8
  %4 = alloca ptr, align 8
  store ptr %0, ptr %3, align 8, !tbaa !108
  store ptr %1, ptr %4, align 8, !tbaa !120
  %5 = load ptr, ptr %3, align 8, !tbaa !108
  %6 = load ptr, ptr %4, align 8, !tbaa !120
  call void @"_ZSt8__invokeIRZN9grpc_core15Chttp2Connector7ConnectERKNS0_19SubchannelConnector4ArgsEPNS2_6ResultEP12grpc_closureE3$_0JN4absl12lts_202407228StatusOrIPNS0_14HandshakerArgsEEEEENSt15__invoke_resultIT_JDpT0_EE4typeEOSJ_DpOSK_"(ptr noundef nonnull align 8 dereferenceable(8) %5, ptr noundef nonnull align 8 dereferenceable(16) %6)
  ret void
}

; Function Attrs: mustprogress nounwind uwtable
define internal noundef ptr @"_ZSt7launderIZN9grpc_core15Chttp2Connector7ConnectERKNS0_19SubchannelConnector4ArgsEPNS2_6ResultEP12grpc_closureE3$_0EPT_SC_"(ptr noundef %0) #8 {
  %2 = alloca ptr, align 8
  store ptr %0, ptr %2, align 8, !tbaa !108
  %3 = load ptr, ptr %2, align 8, !tbaa !108
  ret ptr %3
}

; Function Attrs: mustprogress uwtable
define internal void @"_ZN4absl12lts_2024072222internal_any_invocable7InvokeRIvRZN9grpc_core15Chttp2Connector7ConnectERKNS3_19SubchannelConnector4ArgsEPNS5_6ResultEP12grpc_closureE3$_0JNS0_8StatusOrIPNS3_14HandshakerArgsEEEEvEEvOT0_DpOT1_"(ptr noundef nonnull align 8 dereferenceable(8) %0, ptr noundef nonnull align 8 dereferenceable(16) %1) #4 {
  %3 = alloca ptr, align 8
  %4 = alloca ptr, align 8
  store ptr %0, ptr %3, align 8, !tbaa !108
  store ptr %1, ptr %4, align 8, !tbaa !120
  %5 = load ptr, ptr %3, align 8, !tbaa !108
  %6 = load ptr, ptr %4, align 8, !tbaa !120
  call void @"_ZSt6invokeIRZN9grpc_core15Chttp2Connector7ConnectERKNS0_19SubchannelConnector4ArgsEPNS2_6ResultEP12grpc_closureE3$_0JN4absl12lts_202407228StatusOrIPNS0_14HandshakerArgsEEEEENSt13invoke_resultIT_JDpT0_EE4typeEOSJ_DpOSK_"(ptr noundef nonnull align 8 dereferenceable(8) %5, ptr noundef nonnull align 8 dereferenceable(16) %6)
  ret void
}

; Function Attrs: mustprogress nounwind uwtable
define internal noundef nonnull align 8 dereferenceable(8) ptr @"_ZN4absl12lts_2024072222internal_any_invocable20ObjectInLocalStorageIZN9grpc_core15Chttp2Connector7ConnectERKNS3_19SubchannelConnector4ArgsEPNS5_6ResultEP12grpc_closureE3$_0EERT_PNS1_15TypeErasedStateE"(ptr noundef %0) #8 {
  %2 = alloca ptr, align 8
  store ptr %0, ptr %2, align 8, !tbaa !612
  %3 = load ptr, ptr %2, align 8, !tbaa !612
  %4 = call noundef ptr @"_ZSt7launderIZN9grpc_core15Chttp2Connector7ConnectERKNS0_19SubchannelConnector4ArgsEPNS2_6ResultEP12grpc_closureE3$_0EPT_SC_"(ptr noundef %3) #3
  ret ptr %4
}

; Function Attrs: mustprogress uwtable
define internal void @"_ZN4absl12lts_2024072222internal_any_invocable12LocalInvokerILb0EvRZN9grpc_core15Chttp2Connector7ConnectERKNS3_19SubchannelConnector4ArgsEPNS5_6ResultEP12grpc_closureE3$_0JNS0_8StatusOrIPNS3_14HandshakerArgsEEEEEET0_PNS1_15TypeErasedStateEDpNS1_18ForwardedParameterIT2_E4typeE"(ptr noundef %0, ptr noundef nonnull align 8 dereferenceable(16) %1) #4 {
  %3 = alloca ptr, align 8
  %4 = alloca ptr, align 8
  %5 = alloca ptr, align 8
  store ptr %0, ptr %3, align 8, !tbaa !612
  store ptr %1, ptr %4, align 8, !tbaa !120
  call void @llvm.lifetime.start.p0(i64 8, ptr %5) #3
  %6 = load ptr, ptr %3, align 8, !tbaa !612
  %7 = call noundef nonnull align 8 dereferenceable(8) ptr @"_ZN4absl12lts_2024072222internal_any_invocable20ObjectInLocalStorageIZN9grpc_core15Chttp2Connector7ConnectERKNS3_19SubchannelConnector4ArgsEPNS5_6ResultEP12grpc_closureE3$_0EERT_PNS1_15TypeErasedStateE"(ptr noundef %6)
  store ptr %7, ptr %5, align 8, !tbaa !108
  %8 = load ptr, ptr %5, align 8, !tbaa !108
  %9 = load ptr, ptr %4, align 8, !tbaa !120
  call void @"_ZN4absl12lts_2024072222internal_any_invocable7InvokeRIvRZN9grpc_core15Chttp2Connector7ConnectERKNS3_19SubchannelConnector4ArgsEPNS5_6ResultEP12grpc_closureE3$_0JNS0_8StatusOrIPNS3_14HandshakerArgsEEEEvEEvOT0_DpOT1_"(ptr noundef nonnull align 8 dereferenceable(8) %8, ptr noundef nonnull align 8 dereferenceable(16) %9)
  call void @llvm.lifetime.end.p0(i64 8, ptr %5) #3
  ret void
}