; Function Attrs: mustprogress uwtable
define internal void @"_ZN4absl12lts_2024072222internal_any_invocable12LocalInvokerILb0EvRZN9grpc_core15Chttp2Connector7ConnectERKNS3_19SubchannelConnector4ArgsEPNS5_6ResultEP12grpc_closureE3$_0JNS0_8StatusOrIPNS3_14HandshakerArgsEEEEEET0_PNS1_15TypeErasedStateEDpNS1_18ForwardedParameterIT2_E4typeE"(ptr noundef readonly captures(none) %0, ptr noundef nonnull align 8 captures(none) dereferenceable(16) %1) #3 personality ptr @__gxx_personality_v0 {
  %3 = alloca %"class.absl::lts_20240722::StatusOr.81", align 8
  %4 = alloca %"class.absl::lts_20240722::StatusOr.81", align 8
  %.val = load ptr, ptr %0, align 8
  call void @llvm.lifetime.start.p0(i64 16, ptr nonnull %4)
  %5 = load i64, ptr %1, align 8, !tbaa !54
  %6 = icmp eq i64 %5, 1
  br i1 %6, label %7, label %12

7:                                                ; preds = %2
  %8 = getelementptr inbounds nuw i8, ptr %1, i64 8
  %9 = getelementptr inbounds nuw i8, ptr %4, i64 8
  %10 = load ptr, ptr %8, align 8, !tbaa !97
  store ptr %10, ptr %9, align 8, !tbaa !97
  call void @llvm.lifetime.start.p0(i64 16, ptr nonnull %3)
  %11 = getelementptr inbounds nuw i8, ptr %3, i64 8
  store ptr %10, ptr %11, align 8, !tbaa !97
  br label %_ZN4absl12lts_202407228StatusOrIPN9grpc_core14HandshakerArgsEEC2EOS5_.exit.i.i.i.i.i

12:                                               ; preds = %2
  store i64 55, ptr %1, align 8, !tbaa !54
  call void @llvm.lifetime.start.p0(i64 16, ptr nonnull %3)
  br label %_ZN4absl12lts_202407228StatusOrIPN9grpc_core14HandshakerArgsEEC2EOS5_.exit.i.i.i.i.i

_ZN4absl12lts_202407228StatusOrIPN9grpc_core14HandshakerArgsEEC2EOS5_.exit.i.i.i.i.i: ; preds = %12, %7
  %13 = phi i64 [ 1, %7 ], [ 55, %12 ]
  store i64 %13, ptr %4, align 8, !tbaa !54
  store i64 %5, ptr %3, align 8, !tbaa !54
  invoke void @_ZN9grpc_core15Chttp2Connector15OnHandshakeDoneEN4absl12lts_202407228StatusOrIPNS_14HandshakerArgsEEE(ptr noundef nonnull align 8 dereferenceable(168) %.val, ptr noundef nonnull %3)
          to label %14 unwind label %.body.i.i.i.i

14:                                               ; preds = %_ZN4absl12lts_202407228StatusOrIPN9grpc_core14HandshakerArgsEEC2EOS5_.exit.i.i.i.i.i
  %15 = load i64, ptr %3, align 8, !tbaa !54
  %16 = and i64 %15, 1
  %.not.i.i.i.i.i.i.i.i = icmp eq i64 %16, 0
  br i1 %.not.i.i.i.i.i.i.i.i, label %17, label %"_ZN4absl12lts_2024072222internal_any_invocable7InvokeRIvRZN9grpc_core15Chttp2Connector7ConnectERKNS3_19SubchannelConnector4ArgsEPNS5_6ResultEP12grpc_closureE3$_0JNS0_8StatusOrIPNS3_14HandshakerArgsEEEEvEEvOT0_DpOT1_.exit"

17:                                               ; preds = %14
  %18 = inttoptr i64 %15 to ptr
  invoke void @_ZNK4absl12lts_2024072215status_internal9StatusRep5UnrefEv(ptr noundef nonnull align 8 dereferenceable(48) %18)
          to label %"_ZN4absl12lts_2024072222internal_any_invocable7InvokeRIvRZN9grpc_core15Chttp2Connector7ConnectERKNS3_19SubchannelConnector4ArgsEPNS5_6ResultEP12grpc_closureE3$_0JNS0_8StatusOrIPNS3_14HandshakerArgsEEEEvEEvOT0_DpOT1_.exit" unwind label %19

19:                                               ; preds = %17
  %20 = landingpad { ptr, i32 }
          catch ptr null
  %21 = extractvalue { ptr, i32 } %20, 0
  call void @__clang_call_terminate(ptr %21) #33
  unreachable

.body.i.i.i.i:                                    ; preds = %_ZN4absl12lts_202407228StatusOrIPN9grpc_core14HandshakerArgsEEC2EOS5_.exit.i.i.i.i.i
  %22 = landingpad { ptr, i32 }
          cleanup
  call void @_ZN4absl12lts_2024072217internal_statusor12StatusOrDataIPN9grpc_core14HandshakerArgsEED2Ev(ptr noundef nonnull align 8 dereferenceable(16) %3) #31
  call void @_ZN4absl12lts_2024072217internal_statusor12StatusOrDataIPN9grpc_core14HandshakerArgsEED2Ev(ptr noundef nonnull align 8 dereferenceable(16) %4) #31
  resume { ptr, i32 } %22

"_ZN4absl12lts_2024072222internal_any_invocable7InvokeRIvRZN9grpc_core15Chttp2Connector7ConnectERKNS3_19SubchannelConnector4ArgsEPNS5_6ResultEP12grpc_closureE3$_0JNS0_8StatusOrIPNS3_14HandshakerArgsEEEEvEEvOT0_DpOT1_.exit": ; preds = %14, %17
  call void @llvm.lifetime.end.p0(i64 16, ptr nonnull %3)
  call void @llvm.lifetime.end.p0(i64 16, ptr nonnull %4)
  ret void
}